
 Start  Stop   Length Name               Class

 00000H 003EAH 003EBH _TEXT              CODE
 003EBH 01E17H 01A2DH PROC_TEXT          CODE
 01E18H 01E52H 0003BH IOERROR_TEXT       CODE
 01E53H 01E86H 00034H EXIT_TEXT          CODE
 01E87H 01E87H 00000H STKLEN_TEXT        CODE
 01E87H 01EB5H 0002FH ATEXIT_TEXT        CODE
 01EB6H 021C5H 00310H FMALLOC_TEXT       CODE
 021C6H 0232DH 00168H FBRK_TEXT          CODE
 0232EH 0234DH 00020H SETBLOCK_TEXT      CODE
 0234EH 02618H 002CBH FOPEN_TEXT         CODE
 02619H 027B8H 001A0H OPEN_TEXT          CODE
 027B9H 02805H 0004DH OPENA_TEXT         CODE
 02806H 02806H 00000H FILES_TEXT         CODE
 02806H 02806H 00000H FILES2_TEXT        CODE
 02806H 02806H 00000H FMODE_TEXT         CODE
 02806H 02948H 00143H FSEEK_TEXT         CODE
 02949H 02B99H 00251H GETC_TEXT          CODE
 02B9AH 02BC6H 0002DH IOCTL_TEXT         CODE
 02BC7H 02BD8H 00012H ISATTY_TEXT        CODE
 02BD9H 02D1AH 00142H SETVBUF_TEXT       CODE
 02D1BH 02DEAH 000D0H FCLOSE_TEXT        CODE
 02DEBH 02E1BH 00031H CLOSE_TEXT         CODE
 02E1CH 02E41H 00026H CLOSEA_TEXT        CODE
 02E42H 02E79H 00038H XFCLOSE_TEXT       CODE
 02E7AH 02EB3H 0003AH XFFLUSH_TEXT       CODE
 02EB4H 02F78H 000C5H READ_TEXT          CODE
 02F79H 02F98H 00020H READA_TEXT         CODE
 02F99H 0302CH 00094H FWRITE_TEXT        CODE
 0302DH 03192H 00166H WRITE_TEXT         CODE
 03193H 031DEH 0004CH WRITEA_TEXT        CODE
 031DFH 0321DH 0003FH ACCESS_TEXT        CODE
 0321EH 0324AH 0002DH LSEEK_TEXT         CODE
 0324BH 03346H 000FCH LTOA_TEXT          CODE
 03347H 033F6H 000B0H TMPNAM_TEXT        CODE
 033F7H 03412H 0001CH UNLINK_TEXT        CODE
 03413H 03454H 00042H STRCAT_TEXT        CODE
 03455H 03499H 00045H MEMSET_TEXT        CODE
 0349AH 0350FH 00076H MOVMEM_TEXT        CODE
 03510H 03530H 00021H CHMODA_TEXT        CODE
 03531H 035A0H 00070H EOF_TEXT           CODE
 035A1H 03688H 000E8H FFLUSH_TEXT        CODE
 03689H 036ACH 00024H PRINTF_TEXT        CODE
 036ADH 03926H 0027AH PUTC_TEXT          CODE
 03927H 03E9AH 00574H VPRINTER_TEXT      CODE
 03E9BH 041C1H 00327H FFREE_TEXT         CODE
 041C2H 0425DH 0009CH FGETS_TEXT         CODE
 0425EH 04282H 00025H FPRINTF_TEXT       CODE
 04283H 042EEH 0006CH CALLOC_TEXT        CODE
 042EFH 04314H 00026H REWIND_TEXT        CODE
 04315H 0434EH 0003AH STRNCMP_TEXT       CODE
 0434FH 04381H 00033H STRNCPY_TEXT       CODE
 04382H 0439AH 00019H TELL_TEXT          CODE
 043A0H 04EAFH 00B10H _DATA              DATA
 04EB0H 04EB3H 00004H _EMUSEG            DATA
 04EB4H 04EB5H 00002H _CRTSEG            DATA
 04EB6H 04EB9H 00004H _CVTSEG            DATA
 04EBAH 04EC5H 0000CH _SCNSEG            DATA
 04EC6H 04F55H 00090H _BSS               BSS
 04F56H 04F56H 00000H _BSSEND            STACK
 04F60H 05045H 000E6H _STACK             STACK

Detailed map of segments

0000:0000 01C9 C=CODE S=_TEXT G=(none) M=C0L ACBP=28
0000:01C9 0106 C=CODE S=_TEXT G=(none) M=SETARGV ACBP=28
0000:02CF 0044 C=CODE S=_TEXT G=(none) M=SETENVP ACBP=28
0000:0313 005B C=CODE S=_TEXT G=(none) M=PADD ACBP=28
0000:036E 0021 C=CODE S=_TEXT G=(none) M=PCMP ACBP=28
0000:038F 0019 C=CODE S=_TEXT G=(none) M=LXMUL ACBP=28
0000:03A8 0023 C=CODE S=_TEXT G=(none) M=CVTFAK ACBP=28
0000:03CB 0004 C=CODE S=_TEXT G=(none) M=REALCVT ACBP=28
0000:03CF 001C C=CODE S=_TEXT G=(none) M=SCOPY ACBP=28
003E:000B 1A2D C=CODE S=PROC_TEXT G=(none) M=PROC.C ACBP=28
01E1:0008 003B C=CODE S=IOERROR_TEXT G=(none) M=IOERROR ACBP=28
01E5:0003 0034 C=CODE S=EXIT_TEXT G=(none) M=EXIT ACBP=28
01E8:0007 0000 C=CODE S=STKLEN_TEXT G=(none) M=STKLEN ACBP=28
01E8:0007 002F C=CODE S=ATEXIT_TEXT G=(none) M=ATEXIT ACBP=28
01EB:0006 0310 C=CODE S=FMALLOC_TEXT G=(none) M=FMALLOC ACBP=28
021C:0006 0168 C=CODE S=FBRK_TEXT G=(none) M=FBRK ACBP=28
0232:000E 0020 C=CODE S=SETBLOCK_TEXT G=(none) M=SETBLOCK ACBP=28
0234:000E 02CB C=CODE S=FOPEN_TEXT G=(none) M=FOPEN ACBP=28
0261:0009 01A0 C=CODE S=OPEN_TEXT G=(none) M=OPEN ACBP=28
027B:0009 004D C=CODE S=OPENA_TEXT G=(none) M=OPENA ACBP=28
0280:0006 0000 C=CODE S=FILES_TEXT G=(none) M=FILES ACBP=28
0280:0006 0000 C=CODE S=FILES2_TEXT G=(none) M=FILES2 ACBP=28
0280:0006 0000 C=CODE S=FMODE_TEXT G=(none) M=FMODE ACBP=28
0280:0006 0143 C=CODE S=FSEEK_TEXT G=(none) M=FSEEK ACBP=28
0294:0009 0251 C=CODE S=GETC_TEXT G=(none) M=GETC ACBP=28
02B9:000A 002D C=CODE S=IOCTL_TEXT G=(none) M=IOCTL ACBP=28
02BC:0007 0012 C=CODE S=ISATTY_TEXT G=(none) M=ISATTY ACBP=28
02BD:0009 0142 C=CODE S=SETVBUF_TEXT G=(none) M=SETVBUF ACBP=28
02D1:000B 00D0 C=CODE S=FCLOSE_TEXT G=(none) M=FCLOSE ACBP=28
02DE:000B 0031 C=CODE S=CLOSE_TEXT G=(none) M=CLOSE ACBP=28
02E1:000C 0026 C=CODE S=CLOSEA_TEXT G=(none) M=CLOSEA ACBP=28
02E4:0002 0038 C=CODE S=XFCLOSE_TEXT G=(none) M=XFCLOSE ACBP=28
02E7:000A 003A C=CODE S=XFFLUSH_TEXT G=(none) M=XFFLUSH ACBP=28
02EB:0004 00C5 C=CODE S=READ_TEXT G=(none) M=READ ACBP=28
02F7:0009 0020 C=CODE S=READA_TEXT G=(none) M=READA ACBP=28
02F9:0009 0094 C=CODE S=FWRITE_TEXT G=(none) M=FWRITE ACBP=28
0302:000D 0166 C=CODE S=WRITE_TEXT G=(none) M=WRITE ACBP=28
0319:0003 004C C=CODE S=WRITEA_TEXT G=(none) M=WRITEA ACBP=28
031D:000F 003F C=CODE S=ACCESS_TEXT G=(none) M=ACCESS ACBP=28
0321:000E 002D C=CODE S=LSEEK_TEXT G=(none) M=LSEEK ACBP=28
0324:000B 00FC C=CODE S=LTOA_TEXT G=(none) M=LTOA ACBP=28
0334:0007 00B0 C=CODE S=TMPNAM_TEXT G=(none) M=TMPNAM ACBP=28
033F:0007 001C C=CODE S=UNLINK_TEXT G=(none) M=UNLINK ACBP=28
0341:0003 0042 C=CODE S=STRCAT_TEXT G=(none) M=STRCAT ACBP=28
0345:0005 0045 C=CODE S=MEMSET_TEXT G=(none) M=MEMSET ACBP=28
0349:000A 0076 C=CODE S=MOVMEM_TEXT G=(none) M=MOVMEM ACBP=28
0351:0000 0021 C=CODE S=CHMODA_TEXT G=(none) M=CHMODA ACBP=28
0353:0001 0070 C=CODE S=EOF_TEXT G=(none) M=EOF ACBP=28
035A:0001 00E8 C=CODE S=FFLUSH_TEXT G=(none) M=FFLUSH ACBP=28
0368:0009 0024 C=CODE S=PRINTF_TEXT G=(none) M=PRINTF ACBP=28
036A:000D 027A C=CODE S=PUTC_TEXT G=(none) M=PUTC ACBP=28
0392:0007 0574 C=CODE S=VPRINTER_TEXT G=(none) M=VPRINTER ACBP=28
03E9:000B 0327 C=CODE S=FFREE_TEXT G=(none) M=FFREE ACBP=28
041C:0002 009C C=CODE S=FGETS_TEXT G=(none) M=FGETS ACBP=28
0425:000E 0025 C=CODE S=FPRINTF_TEXT G=(none) M=FPRINTF ACBP=28
0428:0003 006C C=CODE S=CALLOC_TEXT G=(none) M=CALLOC ACBP=28
042E:000F 0026 C=CODE S=REWIND_TEXT G=(none) M=REWIND ACBP=28
0431:0005 003A C=CODE S=STRNCMP_TEXT G=(none) M=STRNCMP ACBP=28
0434:000F 0033 C=CODE S=STRNCPY_TEXT G=(none) M=STRNCPY ACBP=28
0438:0002 0019 C=CODE S=TELL_TEXT G=(none) M=TELL ACBP=28
043A:0000 0093 C=DATA S=_DATA G=DGROUP M=C0L ACBP=68
043A:0094 078C C=DATA S=_DATA G=DGROUP M=PROC.C ACBP=48
043A:0820 005B C=DATA S=_DATA G=DGROUP M=IOERROR ACBP=48
043A:087C 000C C=DATA S=_DATA G=DGROUP M=EXIT ACBP=48
043A:0888 0000 C=DATA S=_DATA G=DGROUP M=SETARGV ACBP=48
043A:0888 0000 C=DATA S=_DATA G=DGROUP M=SETENVP ACBP=48
043A:0888 0002 C=DATA S=_DATA G=DGROUP M=STKLEN ACBP=48
043A:088A 0002 C=DATA S=_DATA G=DGROUP M=ATEXIT ACBP=48
043A:088C 000C C=DATA S=_DATA G=DGROUP M=FMALLOC ACBP=48
043A:0898 0002 C=DATA S=_DATA G=DGROUP M=FBRK ACBP=48
043A:089A 0000 C=DATA S=_DATA G=DGROUP M=SETBLOCK ACBP=48
043A:089A 0000 C=DATA S=_DATA G=DGROUP M=FOPEN ACBP=48
043A:089A 0000 C=DATA S=_DATA G=DGROUP M=OPEN ACBP=48
043A:089A 0000 C=DATA S=_DATA G=DGROUP M=OPENA ACBP=48
043A:089A 0190 C=DATA S=_DATA G=DGROUP M=FILES ACBP=48
043A:0A2A 0028 C=DATA S=_DATA G=DGROUP M=FILES2 ACBP=48
043A:0A52 0004 C=DATA S=_DATA G=DGROUP M=FMODE ACBP=48
043A:0A56 0000 C=DATA S=_DATA G=DGROUP M=FSEEK ACBP=48
043A:0A56 0000 C=DATA S=_DATA G=DGROUP M=GETC ACBP=48
043A:0A56 0000 C=DATA S=_DATA G=DGROUP M=IOCTL ACBP=48
043A:0A56 0000 C=DATA S=_DATA G=DGROUP M=ISATTY ACBP=48
043A:0A56 0004 C=DATA S=_DATA G=DGROUP M=SETVBUF ACBP=48
043A:0A5A 0000 C=DATA S=_DATA G=DGROUP M=FCLOSE ACBP=48
043A:0A5A 0000 C=DATA S=_DATA G=DGROUP M=CLOSE ACBP=48
043A:0A5A 0000 C=DATA S=_DATA G=DGROUP M=CLOSEA ACBP=48
043A:0A5A 0000 C=DATA S=_DATA G=DGROUP M=XFCLOSE ACBP=48
043A:0A5A 0000 C=DATA S=_DATA G=DGROUP M=XFFLUSH ACBP=48
043A:0A5A 0000 C=DATA S=_DATA G=DGROUP M=READ ACBP=48
043A:0A5A 0000 C=DATA S=_DATA G=DGROUP M=READA ACBP=48
043A:0A5A 0000 C=DATA S=_DATA G=DGROUP M=FWRITE ACBP=48
043A:0A5A 0000 C=DATA S=_DATA G=DGROUP M=WRITE ACBP=48
043A:0A5A 0000 C=DATA S=_DATA G=DGROUP M=WRITEA ACBP=48
043A:0A5A 0000 C=DATA S=_DATA G=DGROUP M=ACCESS ACBP=48
043A:0A5A 0000 C=DATA S=_DATA G=DGROUP M=LSEEK ACBP=48
043A:0A5A 0000 C=DATA S=_DATA G=DGROUP M=LTOA ACBP=48
043A:0A5A 0009 C=DATA S=_DATA G=DGROUP M=TMPNAM ACBP=48
043A:0A64 0000 C=DATA S=_DATA G=DGROUP M=UNLINK ACBP=48
043A:0A64 0000 C=DATA S=_DATA G=DGROUP M=STRCAT ACBP=48
043A:0A64 0000 C=DATA S=_DATA G=DGROUP M=MEMSET ACBP=48
043A:0A64 0000 C=DATA S=_DATA G=DGROUP M=MOVMEM ACBP=48
043A:0A64 0000 C=DATA S=_DATA G=DGROUP M=CHMODA ACBP=48
043A:0A64 0031 C=DATA S=_DATA G=DGROUP M=CVTFAK ACBP=48
043A:0A96 0000 C=DATA S=_DATA G=DGROUP M=EOF ACBP=48
043A:0A96 0000 C=DATA S=_DATA G=DGROUP M=FFLUSH ACBP=48
043A:0A96 0000 C=DATA S=_DATA G=DGROUP M=PRINTF ACBP=48
043A:0A96 0001 C=DATA S=_DATA G=DGROUP M=PUTC ACBP=48
043A:0A98 0077 C=DATA S=_DATA G=DGROUP M=VPRINTER ACBP=48
043A:0B10 0000 C=DATA S=_DATA G=DGROUP M=FFREE ACBP=48
043A:0B10 0000 C=DATA S=_DATA G=DGROUP M=FGETS ACBP=48
043A:0B10 0000 C=DATA S=_DATA G=DGROUP M=FPRINTF ACBP=48
043A:0B10 0000 C=DATA S=_DATA G=DGROUP M=CALLOC ACBP=48
043A:0B10 0000 C=DATA S=_DATA G=DGROUP M=REWIND ACBP=48
043A:0B10 0000 C=DATA S=_DATA G=DGROUP M=STRNCMP ACBP=48
043A:0B10 0000 C=DATA S=_DATA G=DGROUP M=STRNCPY ACBP=48
043A:0B10 0000 C=DATA S=_DATA G=DGROUP M=TELL ACBP=48
04EB:0000 0004 C=DATA S=_EMUSEG G=DGROUP M=C0L ACBP=58
04EB:0004 0002 C=DATA S=_CRTSEG G=DGROUP M=C0L ACBP=58
04EB:0006 0000 C=DATA S=_CVTSEG G=DGROUP M=C0L ACBP=48
04EB:0006 0004 C=DATA S=_CVTSEG G=(none) M=CVTFAK ACBP=48
04EB:000A 0000 C=DATA S=_CVTSEG G=DGROUP M=REALCVT ACBP=48
04EB:000A 0000 C=DATA S=_SCNSEG G=DGROUP M=C0L ACBP=48
04EB:000A 000C C=DATA S=_SCNSEG G=(none) M=CVTFAK ACBP=48
04EC:0006 0000 C=BSS S=_BSS G=DGROUP M=C0L ACBP=48
04EC:0006 0000 C=BSS S=_BSS G=DGROUP M=PROC.C ACBP=48
04EC:0006 0000 C=BSS S=_BSS G=DGROUP M=IOERROR ACBP=48
04EC:0006 0000 C=BSS S=_BSS G=DGROUP M=EXIT ACBP=48
04EC:0006 0000 C=BSS S=_BSS G=DGROUP M=STKLEN ACBP=48
04EC:0006 0080 C=BSS S=_BSS G=DGROUP M=ATEXIT ACBP=48
04EC:0086 0000 C=BSS S=_BSS G=DGROUP M=FMALLOC ACBP=48
04EC:0086 0000 C=BSS S=_BSS G=DGROUP M=FBRK ACBP=48
04EC:0086 0000 C=BSS S=_BSS G=DGROUP M=SETBLOCK ACBP=48
04EC:0086 0000 C=BSS S=_BSS G=DGROUP M=FOPEN ACBP=48
04EC:0086 0000 C=BSS S=_BSS G=DGROUP M=OPEN ACBP=48
04EC:0086 0000 C=BSS S=_BSS G=DGROUP M=OPENA ACBP=48
04EC:0086 0000 C=BSS S=_BSS G=DGROUP M=FILES ACBP=48
04EC:0086 0000 C=BSS S=_BSS G=DGROUP M=FILES2 ACBP=48
04EC:0086 0000 C=BSS S=_BSS G=DGROUP M=FMODE ACBP=48
04EC:0086 0000 C=BSS S=_BSS G=DGROUP M=FSEEK ACBP=48
04EC:0086 0000 C=BSS S=_BSS G=DGROUP M=GETC ACBP=48
04EC:0086 0000 C=BSS S=_BSS G=DGROUP M=IOCTL ACBP=48
04EC:0086 0000 C=BSS S=_BSS G=DGROUP M=ISATTY ACBP=48
04EC:0086 0000 C=BSS S=_BSS G=DGROUP M=SETVBUF ACBP=48
04EC:0086 0000 C=BSS S=_BSS G=DGROUP M=FCLOSE ACBP=48
04EC:0086 0000 C=BSS S=_BSS G=DGROUP M=CLOSE ACBP=48
04EC:0086 0000 C=BSS S=_BSS G=DGROUP M=CLOSEA ACBP=48
04EC:0086 0000 C=BSS S=_BSS G=DGROUP M=XFCLOSE ACBP=48
04EC:0086 0000 C=BSS S=_BSS G=DGROUP M=XFFLUSH ACBP=48
04EC:0086 0000 C=BSS S=_BSS G=DGROUP M=READ ACBP=48
04EC:0086 0000 C=BSS S=_BSS G=DGROUP M=READA ACBP=48
04EC:0086 0000 C=BSS S=_BSS G=DGROUP M=FWRITE ACBP=48
04EC:0086 0000 C=BSS S=_BSS G=DGROUP M=WRITE ACBP=48
04EC:0086 0000 C=BSS S=_BSS G=DGROUP M=WRITEA ACBP=48
04EC:0086 0000 C=BSS S=_BSS G=DGROUP M=ACCESS ACBP=48
04EC:0086 0000 C=BSS S=_BSS G=DGROUP M=LSEEK ACBP=48
04EC:0086 0000 C=BSS S=_BSS G=DGROUP M=LTOA ACBP=48
04EC:0086 000F C=BSS S=_BSS G=DGROUP M=TMPNAM ACBP=48
04EC:0096 0000 C=BSS S=_BSS G=DGROUP M=UNLINK ACBP=48
04EC:0096 0000 C=BSS S=_BSS G=DGROUP M=STRCAT ACBP=48
04EC:0096 0000 C=BSS S=_BSS G=DGROUP M=MEMSET ACBP=48
04EC:0096 0000 C=BSS S=_BSS G=DGROUP M=MOVMEM ACBP=48
04EC:0096 0000 C=BSS S=_BSS G=DGROUP M=CHMODA ACBP=48
04EC:0096 0000 C=BSS S=_BSS G=DGROUP M=EOF ACBP=48
04EC:0096 0000 C=BSS S=_BSS G=DGROUP M=FFLUSH ACBP=48
04EC:0096 0000 C=BSS S=_BSS G=DGROUP M=PRINTF ACBP=48
04EC:0096 0000 C=BSS S=_BSS G=DGROUP M=PUTC ACBP=48
04EC:0096 0000 C=BSS S=_BSS G=DGROUP M=VPRINTER ACBP=48
04EC:0096 0000 C=BSS S=_BSS G=DGROUP M=FFREE ACBP=48
04EC:0096 0000 C=BSS S=_BSS G=DGROUP M=FGETS ACBP=48
04EC:0096 0000 C=BSS S=_BSS G=DGROUP M=FPRINTF ACBP=48
04EC:0096 0000 C=BSS S=_BSS G=DGROUP M=CALLOC ACBP=48
04EC:0096 0000 C=BSS S=_BSS G=DGROUP M=REWIND ACBP=48
04EC:0096 0000 C=BSS S=_BSS G=DGROUP M=STRNCMP ACBP=48
04EC:0096 0000 C=BSS S=_BSS G=DGROUP M=STRNCPY ACBP=48
04EC:0096 0000 C=BSS S=_BSS G=DGROUP M=TELL ACBP=48
04F5:0006 0000 C=STACK S=_BSSEND G=DGROUP M=C0L ACBP=28
04F6:0000 00E6 C=STACK S=_STACK G=(none) M=C0L ACBP=74

  Address         Publics by Name

 0000:01C7       DGROUP@
 04F6:00E6       emuTop@
 04F6:00DA       emws_adjust
 04F6:00DE       emws_BPsafe
 04F6:00D6       emws_control
 04F6:00DC       emws_fixSeg
 04F6:00C0       emws_initialSP
 04F6:0000       emws_limitSP
 04F6:00D0       emws_nmiVector
 04F6:00CC       emws_saveVector
 04F6:00E0       emws_stamp
 04F6:00D4       emws_status
 04F6:00D8       emws_TOS
 04F6:00E4       emws_version
 0000:038F       LXMUL@
 0000:0313       PADD@
 0000:036E       PCMP@
 0000:0340       PSUB@
 0000:03CF       SCOPY@
 0000:01AF       _abort
 031D:000F       _access
 01E8:0007       _atexit
 0428:0003       _calloc
 02DE:000B       _close
 003E:0BC6       _compile
 003E:077D       _Create_compilation
 003E:023F       _decval
 043A:0071       _environ
 0353:0001       _eof
 043A:007F       _errno
 01E5:0004       _exit
 03E9:02E5       _farfree
 01EB:0207       _farmalloc
 02D1:000B       _fclose
 0234:0297       _fdopen
 035A:0001       _fflush
 0294:00F5       _fgetc
 0294:024C       _fgetchar
 041C:0002       _fgets
 003E:02D0       _findkey
 0234:0226       _fopen
 0425:000E       _fprintf
 036A:002C       _fputc
 036A:0173       _fputchar
 03E9:000B       _free
 0234:025C       _freopen
 0280:0054       _fseek
 0280:00E2       _ftell
 02F9:0009       _fwrite
 003E:03EA       _gen_symbol_table
 003E:032D       _get_num_scancodes
 003E:014B       _hexval
 02B9:000A       _ioctl
 02BC:0007       _isatty
 0324:008F       _itoa
 043A:00B2       _known_funcs
 043A:0094       _list_keys
 0321:000E       _lseek
 0324:00DC       _ltoa
 003E:18D3       _main
 01EB:0006       _malloc
 0349:005E       _memmove
 0345:002B       _memset
 0349:000A       _movmem
 0261:003C       _open
 043A:0096       _options
 0368:0009       _printf
 003E:000B       _process
 02EB:0004       _read
 042E:000F       _rewind
 0232:000E       _setblock
 0345:0005       _setmem
 02BD:0009       _setvbuf
 003E:0620       _sort_table
 0341:0003       _strcat
 0431:0005       _strncmp
 0434:000F       _strncpy
 0438:0002       _tell
 0334:006E       _tmpnam
 0324:00BC       _ultoa
 033F:0007       _unlink
 0302:000D       _write
 043A:0081       __8087
 043A:006B       __argc
 043A:006D       __argv
 043A:088A       __atexitcnt
 043A:0B26       __atexittbl
 021C:0096       __brk
 043A:008B       __brklvl
 0351:0000       __chmod
 02E1:000C       __close
 0000:0000  Abs  __cvtfak
 043A:0820       __doserrno
 043A:0822       __dosErrorToSV
 043A:0075       __envLng
 043A:0077       __envseg
 043A:0079       __envSize
 0000:010D       __exit
 043A:087C       __exitbuf
 043A:0880       __exitfopen
 043A:0884       __exitopen
 0294:00DB       __fgetc
 043A:088C       __first
 043A:0A52       __fmode
 036A:000D       __fputc
 036A:018C       __FPUTN
 043A:0087       __heapbase
 043A:008F       __heaptop
 043A:005B       __Int0Vector
 043A:005F       __Int4Vector
 043A:0063       __Int5Vector
 043A:0067       __Int6Vector
 01E1:0008       __IOERROR
 043A:0890       __last
 0324:000B       __LONGTOA
 0334:0007       __MKNAME
 043A:0A54       __notUmask
 027B:0009       __open
 043A:0A2A       __openfd
 043A:007D       __osmajor
 043A:007E       __osminor
 043A:007B       __psp
 01EB:001B       __pull_free_block
 02F7:0009       __read
 0000:03CB       __REALCVT
 043A:0B16       __RealCvtVector
 0000:0172       __restorezero
 043A:0894       __rover
 021C:00DD       __sbrk
 043A:0B1A       __ScanTodVector
 0000:01D1       __setargv
 0000:02CF       __setenvp
 043A:0083       __StartTime
 043A:0A56       __stdinStarted
 043A:0A58       __stdoutStarted
 043A:0888       __stklen
 043A:089A       __streams
 043A:0BA6       __tmpnum
 043A:007D       __version
 0392:0032       __VPRINTER
 0319:0003       __write
 02E4:0002       __xfclose
 02E7:000A       __xfflush

  Address         Publics by Value

 0000:0000  Abs  __cvtfak
 0000:010D       __exit
 0000:0172       __restorezero
 0000:01AF       _abort
 0000:01C7       DGROUP@
 0000:01D1       __setargv
 0000:02CF       __setenvp
 0000:0313       PADD@
 0000:0340       PSUB@
 0000:036E       PCMP@
 0000:038F       LXMUL@
 0000:03CB       __REALCVT
 0000:03CF       SCOPY@
 003E:000B       _process
 003E:014B       _hexval
 003E:023F       _decval
 003E:02D0       _findkey
 003E:032D       _get_num_scancodes
 003E:03EA       _gen_symbol_table
 003E:0620       _sort_table
 003E:077D       _Create_compilation
 003E:0BC6       _compile
 003E:18D3       _main
 01E1:0008       __IOERROR
 01E5:0004       _exit
 01E8:0007       _atexit
 01EB:0006       _malloc
 01EB:001B       __pull_free_block
 01EB:0207       _farmalloc
 021C:0096       __brk
 021C:00DD       __sbrk
 0232:000E       _setblock
 0234:0226       _fopen
 0234:025C       _freopen
 0234:0297       _fdopen
 0261:003C       _open
 027B:0009       __open
 0280:0054       _fseek
 0280:00E2       _ftell
 0294:00DB       __fgetc
 0294:00F5       _fgetc
 0294:024C       _fgetchar
 02B9:000A       _ioctl
 02BC:0007       _isatty
 02BD:0009       _setvbuf
 02D1:000B       _fclose
 02DE:000B       _close
 02E1:000C       __close
 02E4:0002       __xfclose
 02E7:000A       __xfflush
 02EB:0004       _read
 02F7:0009       __read
 02F9:0009       _fwrite
 0302:000D       _write
 0319:0003       __write
 031D:000F       _access
 0321:000E       _lseek
 0324:000B       __LONGTOA
 0324:008F       _itoa
 0324:00BC       _ultoa
 0324:00DC       _ltoa
 0334:0007       __MKNAME
 0334:006E       _tmpnam
 033F:0007       _unlink
 0341:0003       _strcat
 0345:0005       _setmem
 0345:002B       _memset
 0349:000A       _movmem
 0349:005E       _memmove
 0351:0000       __chmod
 0353:0001       _eof
 035A:0001       _fflush
 0368:0009       _printf
 036A:000D       __fputc
 036A:002C       _fputc
 036A:0173       _fputchar
 036A:018C       __FPUTN
 0392:0032       __VPRINTER
 03E9:000B       _free
 03E9:02E5       _farfree
 041C:0002       _fgets
 0425:000E       _fprintf
 0428:0003       _calloc
 042E:000F       _rewind
 0431:0005       _strncmp
 0434:000F       _strncpy
 0438:0002       _tell
 043A:005B       __Int0Vector
 043A:005F       __Int4Vector
 043A:0063       __Int5Vector
 043A:0067       __Int6Vector
 043A:006B       __argc
 043A:006D       __argv
 043A:0071       _environ
 043A:0075       __envLng
 043A:0077       __envseg
 043A:0079       __envSize
 043A:007B       __psp
 043A:007D       __osmajor
 043A:007D       __version
 043A:007E       __osminor
 043A:007F       _errno
 043A:0081       __8087
 043A:0083       __StartTime
 043A:0087       __heapbase
 043A:008B       __brklvl
 043A:008F       __heaptop
 043A:0094       _list_keys
 043A:0096       _options
 043A:00B2       _known_funcs
 043A:0820       __doserrno
 043A:0822       __dosErrorToSV
 043A:087C       __exitbuf
 043A:0880       __exitfopen
 043A:0884       __exitopen
 043A:0888       __stklen
 043A:088A       __atexitcnt
 043A:088C       __first
 043A:0890       __last
 043A:0894       __rover
 043A:089A       __streams
 043A:0A2A       __openfd
 043A:0A52       __fmode
 043A:0A54       __notUmask
 043A:0A56       __stdinStarted
 043A:0A58       __stdoutStarted
 043A:0B16       __RealCvtVector
 043A:0B1A       __ScanTodVector
 043A:0B26       __atexittbl
 043A:0BA6       __tmpnum
 04F6:0000       emws_limitSP
 04F6:00C0       emws_initialSP
 04F6:00CC       emws_saveVector
 04F6:00D0       emws_nmiVector
 04F6:00D4       emws_status
 04F6:00D6       emws_control
 04F6:00D8       emws_TOS
 04F6:00DA       emws_adjust
 04F6:00DC       emws_fixSeg
 04F6:00DE       emws_BPsafe
 04F6:00E0       emws_stamp
 04F6:00E4       emws_version
 04F6:00E6       emuTop@

Line numbers for PROC.OBJ(PROC.C) segment PROC_TEXT

    25 003E:000B    30 003E:0011    31 003E:0015    34 003E:001D
    35 003E:0022    36 003E:0026    37 003E:0029    38 003E:003A
    41 003E:004C    43 003E:005E    44 003E:0077    46 003E:007B
    48 003E:0087    49 003E:009F    50 003E:00AB    53 003E:00AD
    55 003E:00BF    39 003E:00C2    57 003E:00D1    59 003E:00D7
    60 003E:00E7    63 003E:00F1    65 003E:00F7    32 003E:010D
    68 003E:012B    69 003E:0139    70 003E:0147    72 003E:014B
    75 003E:0151    76 003E:0160    78 003E:016E    79 003E:017D
    81 003E:018B    82 003E:019A    85 003E:01A8    86 003E:01BB
    88 003E:01C5    89 003E:01D6    91 003E:01E1    92 003E:01F2
    94 003E:01FD    95 003E:020E    98 003E:0219    99 003E:022C
   101 003E:0236   102 003E:023B   104 003E:023F   106 003E:0245
   107 003E:0249   108 003E:0258   110 003E:026B   112 003E:0270
   113 003E:0281   115 003E:029A   116 003E:029F   117 003E:02B0
   118 003E:02C7   119 003E:02CC   123 003E:02D0   126 003E:02D6
   128 003E:02DD   130 003E:0314   133 003E:0324   134 003E:0329
   136 003E:032D   139 003E:0333   140 003E:0337   143 003E:033F
   144 003E:0359   145 003E:035D   146 003E:037D   147 003E:0380
   148 003E:039A   149 003E:039E   141 003E:03B5   151 003E:03D3
   152 003E:03E1   153 003E:03E6   155 003E:03EA   157 003E:03F0
   158 003E:03F5   161 003E:03F9   162 003E:03FD   167 003E:0405
   169 003E:040A   170 003E:0424   171 003E:0428   173 003E:0431
   175 003E:044B   176 003E:0451   177 003E:0460   178 003E:0467
   180 003E:0479   183 003E:047C   184 003E:0499   186 003E:04A8
   187 003E:04BE   188 003E:04CA   190 003E:04ED   191 003E:050E
   192 003E:0525   193 003E:053A   194 003E:056B   195 003E:0571
   199 003E:0586   200 003E:0589   203 003E:058B   204 003E:058B
   205 003E:05B1   209 003E:05BB   210 003E:05D5   211 003E:05D9
   165 003E:05F0   225 003E:060E   228 003E:061C   230 003E:0620
   232 003E:0626   237 003E:063B   239 003E:0640   240 003E:0645
   242 003E:064C   244 003E:0660   245 003E:0686   248 003E:0694
   250 003E:069C   252 003E:06B9   253 003E:06BC   254 003E:06C1
   256 003E:06C9   258 003E:06E1   259 003E:0707   260 003E:0719
   261 003E:072F   262 003E:0732   267 003E:074E   268 003E:076B
   269 003E:0779   271 003E:077D   276 003E:0783   285 003E:0787
   287 003E:078E   288 003E:07A3   289 003E:07B6   291 003E:07DB
   292 003E:07DE   293 003E:07EF   294 003E:0800   295 003E:0813
   297 003E:081A   298 003E:082C   302 003E:084D   303 003E:0851
   306 003E:0859   307 003E:085C   304 003E:085F   309 003E:087D
   310 003E:0890   311 003E:08A3   312 003E:08AB   313 003E:08D7
   315 003E:08DF   316 003E:08F1   318 003E:090E   300 003E:0922
   320 003E:092D   321 003E:093E   322 003E:0952   323 003E:0960
   324 003E:0965   325 003E:096A   327 003E:0972   328 003E:097E
   329 003E:098B   331 003E:09A3   334 003E:09C0   335 003E:09D1
   336 003E:09E2   338 003E:09F9   339 003E:0A12   340 003E:0A3D
   341 003E:0A58   344 003E:0A5A   346 003E:0A60   347 003E:0A6D
   349 003E:0A77   351 003E:0A95   352 003E:0AAF   355 003E:0AB1
   356 003E:0ADD   358 003E:0AF8   359 003E:0B15   360 003E:0B3C
   361 003E:0B45   362 003E:0B4B   364 003E:0B53   367 003E:0B6E
   369 003E:0B76   370 003E:0B8A   372 003E:0B94   373 003E:0BA7
   374 003E:0BC2   377 003E:0BC6   392 003E:0BCD   394 003E:0BD2
   402 003E:0BD7   409 003E:0BDB   418 003E:0BDF   419 003E:0BEF
   420 003E:0BF6   422 003E:0C04   423 003E:0C19   424 003E:0C28
   425 003E:0C38   426 003E:0C3D   427 003E:0C42   431 003E:0C5B
   432 003E:0C60   434 003E:0C6D   435 003E:0C70   436 003E:0C74
   437 003E:0C79   439 003E:0C7B   441 003E:0C88   442 003E:0C8B
   444 003E:0C91   445 003E:0C91   446 003E:0CB7   448 003E:0CC1
   449 003E:0CC5   451 003E:0CC7   453 003E:0CCD   454 003E:0CDD
   455 003E:0CE3   458 003E:0CE7   459 003E:0D02   461 003E:0D06
   465 003E:0D0F   468 003E:0D2A   470 003E:0D30   471 003E:0D30
   472 003E:0D56   474 003E:0D60   476 003E:0D66   477 003E:0D66
   478 003E:0D8C   481 003E:0D96   482 003E:0DC2   484 003E:0DD2
   485 003E:0DEE   487 003E:0DF3   488 003E:0DFE   490 003E:0DFE
   491 003E:0E2A   493 003E:0E34   494 003E:0E40   496 003E:0E49
   497 003E:0E56   499 003E:0E5C   500 003E:0E60   501 003E:0E65
   502 003E:0E6A   505 003E:0E6C   506 003E:0E6C   507 003E:0E92
   509 003E:0E9C   510 003E:0EA0   511 003E:0EA3   516 003E:0EA6
   519 003E:0EAD   523 003E:0EB7   520 003E:0EBB   523 003E:0EBB
   524 003E:0EF3   526 003E:0F00   527 003E:0F06   529 003E:0F39
   530 003E:0F44   532 003E:0F4F   534 003E:0F55   535 003E:0F61
   536 003E:0F61   537 003E:0F93   540 003E:0F9D   542 003E:0FA6
   543 003E:0FD3   545 003E:0FE1   546 003E:0FE1   547 003E:1007
   549 003E:1011   550 003E:1018   552 003E:1026   553 003E:1029
   555 003E:1036   556 003E:1036   557 003E:105C   559 003E:1066
   560 003E:1069   563 003E:106B   564 003E:106F   566 003E:107C
   567 003E:1080   568 003E:1085   570 003E:1087   572 003E:1094
   574 003E:109A   575 003E:109A   576 003E:10C0   578 003E:10CA
   582 003E:10CE   583 003E:10D1   586 003E:10D4   587 003E:10DB
   588 003E:10E0   589 003E:10E4   592 003E:10E8   599 003E:10F2
   601 003E:10F9   602 003E:1115   603 003E:1124   605 003E:1126
   606 003E:113C   593 003E:1140   597 003E:1140   608 003E:1185
   610 003E:118C   611 003E:118C   612 003E:11B2   614 003E:11BC
   616 003E:11CA   621 003E:11CE   623 003E:11D6   624 003E:11E2
   625 003E:1203   627 003E:1209   629 003E:1216   631 003E:1235
   632 003E:1239   633 003E:1243   634 003E:1264   635 003E:1277
   636 003E:1298   637 003E:129F   640 003E:12AE   641 003E:12B5
   642 003E:12CF   643 003E:12E3   638 003E:1304   645 003E:1313
   646 003E:131A   647 003E:1327   649 003E:132A   651 003E:133B
   652 003E:1345   653 003E:1366   654 003E:1370   655 003E:1391
   657 003E:1398   658 003E:13A5   660 003E:13AF   661 003E:13C9
   662 003E:13EA   663 003E:13F1   664 003E:13F1   665 003E:1416
   667 003E:1419   669 003E:143B   670 003E:1445   671 003E:1466
   672 003E:1470   673 003E:1491   674 003E:14AB   675 003E:14CC
   676 003E:14D3   677 003E:14D3   678 003E:14F8   681 003E:14FB
   682 003E:1502   684 003E:1535   685 003E:153C   686 003E:155B
   687 003E:1569   688 003E:158A   690 003E:1598   692 003E:15A1
   693 003E:15AB   694 003E:15CC   695 003E:15DD   696 003E:15FE
   697 003E:1605   700 003E:1614   701 003E:161B   702 003E:1635
   703 003E:1649   698 003E:166A   705 003E:1678   706 003E:167F
   709 003E:168C   712 003E:168E   714 003E:1694   715 003E:169E
   716 003E:16BF   717 003E:16C3   718 003E:16CA   723 003E:16D7
   725 003E:16E0   726 003E:170D   728 003E:171B   730 003E:1721
   731 003E:172B   733 003E:174C   735 003E:174F   737 003E:175D
   738 003E:175D   739 003E:1783   741 003E:178D   743 003E:1794
   745 003E:17A2   746 003E:17A5   748 003E:17B2   749 003E:17B2
   750 003E:17D8   752 003E:17E2   753 003E:17E4   756 003E:17E6
   758 003E:17F3   759 003E:17F7   760 003E:17FC   762 003E:17FE
   764 003E:180B   766 003E:1811   767 003E:1811   768 003E:1837
   770 003E:1841   774 003E:1845   775 003E:1848   778 003E:184A
   780 003E:185A   781 003E:1875   782 003E:1879   428 003E:1891
   784 003E:18B0   785 003E:18CF   788 003E:18D3   791 003E:18D9
   793 003E:18DF   794 003E:18EC   796 003E:18F6   798 003E:18FC
   799 003E:1916   801 003E:191C   802 003E:193A   804 003E:193E
   805 003E:1956   807 003E:1960   808 003E:197E   810 003E:1982
   811 003E:199A   813 003E:19A4   814 003E:19BC   816 003E:19C0
   817 003E:19CD   819 003E:19D7   820 003E:19EA   821 003E:19FD
   822 003E:1A0B   823 003E:1A19   824 003E:1A27   825 003E:1A34
Program entry point at 0000:0000

