
 Start  Stop   Length Name               Class

 00000H 003CEH 003CFH _TEXT              CODE
 003CFH 00F02H 00B34H UNPROC_TEXT        CODE
 00F03H 00F3DH 0003BH IOERROR_TEXT       CODE
 00F3EH 00F71H 00034H EXIT_TEXT          CODE
 00F72H 00F72H 00000H STKLEN_TEXT        CODE
 00F72H 00FA0H 0002FH ATEXIT_TEXT        CODE
 00FA1H 012B0H 00310H FMALLOC_TEXT       CODE
 012B1H 01418H 00168H FBRK_TEXT          CODE
 01419H 01438H 00020H SETBLOCK_TEXT      CODE
 01439H 01703H 002CBH FOPEN_TEXT         CODE
 01704H 018A3H 001A0H OPEN_TEXT          CODE
 018A4H 018F0H 0004DH OPENA_TEXT         CODE
 018F1H 018F1H 00000H FILES_TEXT         CODE
 018F1H 018F1H 00000H FILES2_TEXT        CODE
 018F1H 018F1H 00000H FMODE_TEXT         CODE
 018F1H 01A33H 00143H FSEEK_TEXT         CODE
 01A34H 01C84H 00251H GETC_TEXT          CODE
 01C85H 01CB1H 0002DH IOCTL_TEXT         CODE
 01CB2H 01CC3H 00012H ISATTY_TEXT        CODE
 01CC4H 01E05H 00142H SETVBUF_TEXT       CODE
 01E06H 01ED5H 000D0H FCLOSE_TEXT        CODE
 01ED6H 01F06H 00031H CLOSE_TEXT         CODE
 01F07H 01F2CH 00026H CLOSEA_TEXT        CODE
 01F2DH 01F64H 00038H XFCLOSE_TEXT       CODE
 01F65H 01F9EH 0003AH XFFLUSH_TEXT       CODE
 01F9FH 02141H 001A3H FREAD_TEXT         CODE
 02142H 02206H 000C5H READ_TEXT          CODE
 02207H 02226H 00020H READA_TEXT         CODE
 02227H 0238CH 00166H WRITE_TEXT         CODE
 0238DH 023D8H 0004CH WRITEA_TEXT        CODE
 023D9H 02417H 0003FH ACCESS_TEXT        CODE
 02418H 02444H 0002DH LSEEK_TEXT         CODE
 02445H 02540H 000FCH LTOA_TEXT          CODE
 02541H 025F0H 000B0H TMPNAM_TEXT        CODE
 025F1H 0260CH 0001CH UNLINK_TEXT        CODE
 0260DH 0264EH 00042H STRCAT_TEXT        CODE
 0264FH 02669H 0001BH STRLEN_TEXT        CODE
 0266AH 026AEH 00045H MEMSET_TEXT        CODE
 026AFH 026CFH 00021H CHMODA_TEXT        CODE
 026D0H 0273FH 00070H EOF_TEXT           CODE
 02740H 02827H 000E8H FFLUSH_TEXT        CODE
 02828H 0284BH 00024H PRINTF_TEXT        CODE
 0284CH 02AC5H 0027AH PUTC_TEXT          CODE
 02AC6H 03039H 00574H VPRINTER_TEXT      CODE
 0303AH 03360H 00327H FFREE_TEXT         CODE
 03361H 03385H 00025H FPRINTF_TEXT       CODE
 03386H 033F1H 0006CH CALLOC_TEXT        CODE
 033F2H 0340AH 00019H TELL_TEXT          CODE
 03410H 039EFH 005E0H _DATA              DATA
 039F0H 039F3H 00004H _EMUSEG            DATA
 039F4H 039F5H 00002H _CRTSEG            DATA
 039F6H 039F9H 00004H _CVTSEG            DATA
 039FAH 03A05H 0000CH _SCNSEG            DATA
 03A06H 03AABH 000A6H _BSS               BSS
 03AACH 03AACH 00000H _BSSEND            STACK
 03AB0H 03B95H 000E6H _STACK             STACK

Detailed map of segments

0000:0000 01C9 C=CODE S=_TEXT G=(none) M=C0L ACBP=28
0000:01C9 0106 C=CODE S=_TEXT G=(none) M=SETARGV ACBP=28
0000:02CF 0044 C=CODE S=_TEXT G=(none) M=SETENVP ACBP=28
0000:0313 005B C=CODE S=_TEXT G=(none) M=PADD ACBP=28
0000:036E 0021 C=CODE S=_TEXT G=(none) M=PCMP ACBP=28
0000:038F 0019 C=CODE S=_TEXT G=(none) M=LXMUL ACBP=28
0000:03A8 0023 C=CODE S=_TEXT G=(none) M=CVTFAK ACBP=28
0000:03CB 0004 C=CODE S=_TEXT G=(none) M=REALCVT ACBP=28
003C:000F 0B34 C=CODE S=UNPROC_TEXT G=(none) M=UNPROC.C ACBP=28
00F0:0003 003B C=CODE S=IOERROR_TEXT G=(none) M=IOERROR ACBP=28
00F3:000E 0034 C=CODE S=EXIT_TEXT G=(none) M=EXIT ACBP=28
00F7:0002 0000 C=CODE S=STKLEN_TEXT G=(none) M=STKLEN ACBP=28
00F7:0002 002F C=CODE S=ATEXIT_TEXT G=(none) M=ATEXIT ACBP=28
00FA:0001 0310 C=CODE S=FMALLOC_TEXT G=(none) M=FMALLOC ACBP=28
012B:0001 0168 C=CODE S=FBRK_TEXT G=(none) M=FBRK ACBP=28
0141:0009 0020 C=CODE S=SETBLOCK_TEXT G=(none) M=SETBLOCK ACBP=28
0143:0009 02CB C=CODE S=FOPEN_TEXT G=(none) M=FOPEN ACBP=28
0170:0004 01A0 C=CODE S=OPEN_TEXT G=(none) M=OPEN ACBP=28
018A:0004 004D C=CODE S=OPENA_TEXT G=(none) M=OPENA ACBP=28
018F:0001 0000 C=CODE S=FILES_TEXT G=(none) M=FILES ACBP=28
018F:0001 0000 C=CODE S=FILES2_TEXT G=(none) M=FILES2 ACBP=28
018F:0001 0000 C=CODE S=FMODE_TEXT G=(none) M=FMODE ACBP=28
018F:0001 0143 C=CODE S=FSEEK_TEXT G=(none) M=FSEEK ACBP=28
01A3:0004 0251 C=CODE S=GETC_TEXT G=(none) M=GETC ACBP=28
01C8:0005 002D C=CODE S=IOCTL_TEXT G=(none) M=IOCTL ACBP=28
01CB:0002 0012 C=CODE S=ISATTY_TEXT G=(none) M=ISATTY ACBP=28
01CC:0004 0142 C=CODE S=SETVBUF_TEXT G=(none) M=SETVBUF ACBP=28
01E0:0006 00D0 C=CODE S=FCLOSE_TEXT G=(none) M=FCLOSE ACBP=28
01ED:0006 0031 C=CODE S=CLOSE_TEXT G=(none) M=CLOSE ACBP=28
01F0:0007 0026 C=CODE S=CLOSEA_TEXT G=(none) M=CLOSEA ACBP=28
01F2:000D 0038 C=CODE S=XFCLOSE_TEXT G=(none) M=XFCLOSE ACBP=28
01F6:0005 003A C=CODE S=XFFLUSH_TEXT G=(none) M=XFFLUSH ACBP=28
01F9:000F 01A3 C=CODE S=FREAD_TEXT G=(none) M=FREAD ACBP=28
0214:0002 00C5 C=CODE S=READ_TEXT G=(none) M=READ ACBP=28
0220:0007 0020 C=CODE S=READA_TEXT G=(none) M=READA ACBP=28
0222:0007 0166 C=CODE S=WRITE_TEXT G=(none) M=WRITE ACBP=28
0238:000D 004C C=CODE S=WRITEA_TEXT G=(none) M=WRITEA ACBP=28
023D:0009 003F C=CODE S=ACCESS_TEXT G=(none) M=ACCESS ACBP=28
0241:0008 002D C=CODE S=LSEEK_TEXT G=(none) M=LSEEK ACBP=28
0244:0005 00FC C=CODE S=LTOA_TEXT G=(none) M=LTOA ACBP=28
0254:0001 00B0 C=CODE S=TMPNAM_TEXT G=(none) M=TMPNAM ACBP=28
025F:0001 001C C=CODE S=UNLINK_TEXT G=(none) M=UNLINK ACBP=28
0260:000D 0042 C=CODE S=STRCAT_TEXT G=(none) M=STRCAT ACBP=28
0264:000F 001B C=CODE S=STRLEN_TEXT G=(none) M=STRLEN ACBP=28
0266:000A 0045 C=CODE S=MEMSET_TEXT G=(none) M=MEMSET ACBP=28
026A:000F 0021 C=CODE S=CHMODA_TEXT G=(none) M=CHMODA ACBP=28
026D:0000 0070 C=CODE S=EOF_TEXT G=(none) M=EOF ACBP=28
0274:0000 00E8 C=CODE S=FFLUSH_TEXT G=(none) M=FFLUSH ACBP=28
0282:0008 0024 C=CODE S=PRINTF_TEXT G=(none) M=PRINTF ACBP=28
0284:000C 027A C=CODE S=PUTC_TEXT G=(none) M=PUTC ACBP=28
02AC:0006 0574 C=CODE S=VPRINTER_TEXT G=(none) M=VPRINTER ACBP=28
0303:000A 0327 C=CODE S=FFREE_TEXT G=(none) M=FFREE ACBP=28
0336:0001 0025 C=CODE S=FPRINTF_TEXT G=(none) M=FPRINTF ACBP=28
0338:0006 006C C=CODE S=CALLOC_TEXT G=(none) M=CALLOC ACBP=28
033F:0002 0019 C=CODE S=TELL_TEXT G=(none) M=TELL ACBP=28
0341:0000 0093 C=DATA S=_DATA G=DGROUP M=C0L ACBP=68
0341:0094 025C C=DATA S=_DATA G=DGROUP M=UNPROC.C ACBP=48
0341:02F0 005B C=DATA S=_DATA G=DGROUP M=IOERROR ACBP=48
0341:034C 000C C=DATA S=_DATA G=DGROUP M=EXIT ACBP=48
0341:0358 0000 C=DATA S=_DATA G=DGROUP M=SETARGV ACBP=48
0341:0358 0000 C=DATA S=_DATA G=DGROUP M=SETENVP ACBP=48
0341:0358 0002 C=DATA S=_DATA G=DGROUP M=STKLEN ACBP=48
0341:035A 0002 C=DATA S=_DATA G=DGROUP M=ATEXIT ACBP=48
0341:035C 000C C=DATA S=_DATA G=DGROUP M=FMALLOC ACBP=48
0341:0368 0002 C=DATA S=_DATA G=DGROUP M=FBRK ACBP=48
0341:036A 0000 C=DATA S=_DATA G=DGROUP M=SETBLOCK ACBP=48
0341:036A 0000 C=DATA S=_DATA G=DGROUP M=FOPEN ACBP=48
0341:036A 0000 C=DATA S=_DATA G=DGROUP M=OPEN ACBP=48
0341:036A 0000 C=DATA S=_DATA G=DGROUP M=OPENA ACBP=48
0341:036A 0190 C=DATA S=_DATA G=DGROUP M=FILES ACBP=48
0341:04FA 0028 C=DATA S=_DATA G=DGROUP M=FILES2 ACBP=48
0341:0522 0004 C=DATA S=_DATA G=DGROUP M=FMODE ACBP=48
0341:0526 0000 C=DATA S=_DATA G=DGROUP M=FSEEK ACBP=48
0341:0526 0000 C=DATA S=_DATA G=DGROUP M=GETC ACBP=48
0341:0526 0000 C=DATA S=_DATA G=DGROUP M=IOCTL ACBP=48
0341:0526 0000 C=DATA S=_DATA G=DGROUP M=ISATTY ACBP=48
0341:0526 0004 C=DATA S=_DATA G=DGROUP M=SETVBUF ACBP=48
0341:052A 0000 C=DATA S=_DATA G=DGROUP M=FCLOSE ACBP=48
0341:052A 0000 C=DATA S=_DATA G=DGROUP M=CLOSE ACBP=48
0341:052A 0000 C=DATA S=_DATA G=DGROUP M=CLOSEA ACBP=48
0341:052A 0000 C=DATA S=_DATA G=DGROUP M=XFCLOSE ACBP=48
0341:052A 0000 C=DATA S=_DATA G=DGROUP M=XFFLUSH ACBP=48
0341:052A 0000 C=DATA S=_DATA G=DGROUP M=FREAD ACBP=48
0341:052A 0000 C=DATA S=_DATA G=DGROUP M=READ ACBP=48
0341:052A 0000 C=DATA S=_DATA G=DGROUP M=READA ACBP=48
0341:052A 0000 C=DATA S=_DATA G=DGROUP M=WRITE ACBP=48
0341:052A 0000 C=DATA S=_DATA G=DGROUP M=WRITEA ACBP=48
0341:052A 0000 C=DATA S=_DATA G=DGROUP M=ACCESS ACBP=48
0341:052A 0000 C=DATA S=_DATA G=DGROUP M=LSEEK ACBP=48
0341:052A 0000 C=DATA S=_DATA G=DGROUP M=LTOA ACBP=48
0341:052A 0009 C=DATA S=_DATA G=DGROUP M=TMPNAM ACBP=48
0341:0534 0000 C=DATA S=_DATA G=DGROUP M=UNLINK ACBP=48
0341:0534 0000 C=DATA S=_DATA G=DGROUP M=STRCAT ACBP=48
0341:0534 0000 C=DATA S=_DATA G=DGROUP M=STRLEN ACBP=48
0341:0534 0000 C=DATA S=_DATA G=DGROUP M=MEMSET ACBP=48
0341:0534 0000 C=DATA S=_DATA G=DGROUP M=CHMODA ACBP=48
0341:0534 0031 C=DATA S=_DATA G=DGROUP M=CVTFAK ACBP=48
0341:0566 0000 C=DATA S=_DATA G=DGROUP M=EOF ACBP=48
0341:0566 0000 C=DATA S=_DATA G=DGROUP M=FFLUSH ACBP=48
0341:0566 0000 C=DATA S=_DATA G=DGROUP M=PRINTF ACBP=48
0341:0566 0001 C=DATA S=_DATA G=DGROUP M=PUTC ACBP=48
0341:0568 0077 C=DATA S=_DATA G=DGROUP M=VPRINTER ACBP=48
0341:05E0 0000 C=DATA S=_DATA G=DGROUP M=FFREE ACBP=48
0341:05E0 0000 C=DATA S=_DATA G=DGROUP M=FPRINTF ACBP=48
0341:05E0 0000 C=DATA S=_DATA G=DGROUP M=CALLOC ACBP=48
0341:05E0 0000 C=DATA S=_DATA G=DGROUP M=TELL ACBP=48
039F:0000 0004 C=DATA S=_EMUSEG G=DGROUP M=C0L ACBP=58
039F:0004 0002 C=DATA S=_CRTSEG G=DGROUP M=C0L ACBP=58
039F:0006 0000 C=DATA S=_CVTSEG G=DGROUP M=C0L ACBP=48
039F:0006 0004 C=DATA S=_CVTSEG G=(none) M=CVTFAK ACBP=48
039F:000A 0000 C=DATA S=_CVTSEG G=DGROUP M=REALCVT ACBP=48
039F:000A 0000 C=DATA S=_SCNSEG G=DGROUP M=C0L ACBP=48
039F:000A 000C C=DATA S=_SCNSEG G=(none) M=CVTFAK ACBP=48
03A0:0006 0000 C=BSS S=_BSS G=DGROUP M=C0L ACBP=48
03A0:0006 0015 C=BSS S=_BSS G=DGROUP M=UNPROC.C ACBP=48
03A0:001C 0000 C=BSS S=_BSS G=DGROUP M=IOERROR ACBP=48
03A0:001C 0000 C=BSS S=_BSS G=DGROUP M=EXIT ACBP=48
03A0:001C 0000 C=BSS S=_BSS G=DGROUP M=STKLEN ACBP=48
03A0:001C 0080 C=BSS S=_BSS G=DGROUP M=ATEXIT ACBP=48
03A0:009C 0000 C=BSS S=_BSS G=DGROUP M=FMALLOC ACBP=48
03A0:009C 0000 C=BSS S=_BSS G=DGROUP M=FBRK ACBP=48
03A0:009C 0000 C=BSS S=_BSS G=DGROUP M=SETBLOCK ACBP=48
03A0:009C 0000 C=BSS S=_BSS G=DGROUP M=FOPEN ACBP=48
03A0:009C 0000 C=BSS S=_BSS G=DGROUP M=OPEN ACBP=48
03A0:009C 0000 C=BSS S=_BSS G=DGROUP M=OPENA ACBP=48
03A0:009C 0000 C=BSS S=_BSS G=DGROUP M=FILES ACBP=48
03A0:009C 0000 C=BSS S=_BSS G=DGROUP M=FILES2 ACBP=48
03A0:009C 0000 C=BSS S=_BSS G=DGROUP M=FMODE ACBP=48
03A0:009C 0000 C=BSS S=_BSS G=DGROUP M=FSEEK ACBP=48
03A0:009C 0000 C=BSS S=_BSS G=DGROUP M=GETC ACBP=48
03A0:009C 0000 C=BSS S=_BSS G=DGROUP M=IOCTL ACBP=48
03A0:009C 0000 C=BSS S=_BSS G=DGROUP M=ISATTY ACBP=48
03A0:009C 0000 C=BSS S=_BSS G=DGROUP M=SETVBUF ACBP=48
03A0:009C 0000 C=BSS S=_BSS G=DGROUP M=FCLOSE ACBP=48
03A0:009C 0000 C=BSS S=_BSS G=DGROUP M=CLOSE ACBP=48
03A0:009C 0000 C=BSS S=_BSS G=DGROUP M=CLOSEA ACBP=48
03A0:009C 0000 C=BSS S=_BSS G=DGROUP M=XFCLOSE ACBP=48
03A0:009C 0000 C=BSS S=_BSS G=DGROUP M=XFFLUSH ACBP=48
03A0:009C 0000 C=BSS S=_BSS G=DGROUP M=FREAD ACBP=48
03A0:009C 0000 C=BSS S=_BSS G=DGROUP M=READ ACBP=48
03A0:009C 0000 C=BSS S=_BSS G=DGROUP M=READA ACBP=48
03A0:009C 0000 C=BSS S=_BSS G=DGROUP M=WRITE ACBP=48
03A0:009C 0000 C=BSS S=_BSS G=DGROUP M=WRITEA ACBP=48
03A0:009C 0000 C=BSS S=_BSS G=DGROUP M=ACCESS ACBP=48
03A0:009C 0000 C=BSS S=_BSS G=DGROUP M=LSEEK ACBP=48
03A0:009C 0000 C=BSS S=_BSS G=DGROUP M=LTOA ACBP=48
03A0:009C 000F C=BSS S=_BSS G=DGROUP M=TMPNAM ACBP=48
03A0:00AC 0000 C=BSS S=_BSS G=DGROUP M=UNLINK ACBP=48
03A0:00AC 0000 C=BSS S=_BSS G=DGROUP M=STRCAT ACBP=48
03A0:00AC 0000 C=BSS S=_BSS G=DGROUP M=STRLEN ACBP=48
03A0:00AC 0000 C=BSS S=_BSS G=DGROUP M=MEMSET ACBP=48
03A0:00AC 0000 C=BSS S=_BSS G=DGROUP M=CHMODA ACBP=48
03A0:00AC 0000 C=BSS S=_BSS G=DGROUP M=EOF ACBP=48
03A0:00AC 0000 C=BSS S=_BSS G=DGROUP M=FFLUSH ACBP=48
03A0:00AC 0000 C=BSS S=_BSS G=DGROUP M=PRINTF ACBP=48
03A0:00AC 0000 C=BSS S=_BSS G=DGROUP M=PUTC ACBP=48
03A0:00AC 0000 C=BSS S=_BSS G=DGROUP M=VPRINTER ACBP=48
03A0:00AC 0000 C=BSS S=_BSS G=DGROUP M=FFREE ACBP=48
03A0:00AC 0000 C=BSS S=_BSS G=DGROUP M=FPRINTF ACBP=48
03A0:00AC 0000 C=BSS S=_BSS G=DGROUP M=CALLOC ACBP=48
03A0:00AC 0000 C=BSS S=_BSS G=DGROUP M=TELL ACBP=48
03AA:000C 0000 C=STACK S=_BSSEND G=DGROUP M=C0L ACBP=28
03AB:0000 00E6 C=STACK S=_STACK G=(none) M=C0L ACBP=74

  Address         Publics by Name

 0000:01C7       DGROUP@
 03AB:00E6       emuTop@
 03AB:00DA       emws_adjust
 03AB:00DE       emws_BPsafe
 03AB:00D6       emws_control
 03AB:00DC       emws_fixSeg
 03AB:00C0       emws_initialSP
 03AB:0000       emws_limitSP
 03AB:00D0       emws_nmiVector
 03AB:00CC       emws_saveVector
 03AB:00E0       emws_stamp
 03AB:00D4       emws_status
 03AB:00D8       emws_TOS
 03AB:00E4       emws_version
 0000:038F       LXMUL@
 0000:0313       PADD@
 0000:036E       PCMP@
 0000:0340       PSUB@
 0000:01AF       _abort
 023D:0009       _access
 00F7:0002       _atexit
 0338:0006       _calloc
 01ED:0006       _close
 003C:0631       _dump_defs
 003C:000F       _dump_key
 003C:0784       _dump_scans
 0341:0071       _environ
 026D:0000       _eof
 0341:007F       _errno
 00F3:000F       _exit
 0303:02E4       _farfree
 00FA:0202       _farmalloc
 01E0:0006       _fclose
 0143:0292       _fdopen
 0274:0000       _fflush
 01A3:00F0       _fgetc
 01A3:0247       _fgetchar
 0143:0221       _fopen
 0336:0001       _fprintf
 0284:002B       _fputc
 0284:0172       _fputchar
 01F9:012E       _fread
 0303:000A       _free
 0143:0257       _freopen
 018F:004F       _fseek
 018F:00DD       _ftell
 01C8:0005       _ioctl
 01CB:0002       _isatty
 0244:0089       _itoa
 0241:0008       _lseek
 0244:00D6       _ltoa
 003C:08D7       _main
 00FA:0001       _malloc
 0266:0030       _memset
 0170:0037       _open
 0341:0094       _option
 0341:0607       _output
 0282:0008       _printf
 0214:0002       _read
 0141:0009       _setblock
 0266:000A       _setmem
 01CC:0004       _setvbuf
 0260:000D       _strcat
 0264:000F       _strlen
 033F:0002       _tell
 0341:05F6       _temp
 0341:05FA       _tempkbd
 0254:0068       _tmpnam
 0244:00B6       _ultoa
 025F:0001       _unlink
 0222:0007       _write
 0341:0081       __8087
 0341:006B       __argc
 0341:006D       __argv
 0341:035A       __atexitcnt
 0341:060C       __atexittbl
 012B:0091       __brk
 0341:008B       __brklvl
 026A:000F       __chmod
 01F0:0007       __close
 0000:0000  Abs  __cvtfak
 0341:02F0       __doserrno
 0341:02F2       __dosErrorToSV
 0341:0075       __envLng
 0341:0077       __envseg
 0341:0079       __envSize
 0000:010D       __exit
 0341:034C       __exitbuf
 0341:0350       __exitfopen
 0341:0354       __exitopen
 01A3:00D6       __fgetc
 0341:035C       __first
 0341:0522       __fmode
 0284:000C       __fputc
 0284:018B       __FPUTN
 0341:0087       __heapbase
 0341:008F       __heaptop
 0341:005B       __Int0Vector
 0341:005F       __Int4Vector
 0341:0063       __Int5Vector
 0341:0067       __Int6Vector
 00F0:0003       __IOERROR
 0341:0360       __last
 0244:0005       __LONGTOA
 0254:0001       __MKNAME
 0341:0524       __notUmask
 018A:0004       __open
 0341:04FA       __openfd
 0341:007D       __osmajor
 0341:007E       __osminor
 0341:007B       __psp
 00FA:0016       __pull_free_block
 0220:0007       __read
 0000:03CB       __REALCVT
 0341:05E6       __RealCvtVector
 0000:0172       __restorezero
 0341:0364       __rover
 012B:00D8       __sbrk
 0341:05EA       __ScanTodVector
 0000:01D1       __setargv
 0000:02CF       __setenvp
 0341:0083       __StartTime
 0341:0526       __stdinStarted
 0341:0528       __stdoutStarted
 0341:0358       __stklen
 0341:036A       __streams
 0341:068C       __tmpnum
 0341:007D       __version
 02AC:0031       __VPRINTER
 0238:000D       __write
 01F2:000D       __xfclose
 01F6:0005       __xfflush

  Address         Publics by Value

 0000:0000  Abs  __cvtfak
 0000:010D       __exit
 0000:0172       __restorezero
 0000:01AF       _abort
 0000:01C7       DGROUP@
 0000:01D1       __setargv
 0000:02CF       __setenvp
 0000:0313       PADD@
 0000:0340       PSUB@
 0000:036E       PCMP@
 0000:038F       LXMUL@
 0000:03CB       __REALCVT
 003C:000F       _dump_key
 003C:0631       _dump_defs
 003C:0784       _dump_scans
 003C:08D7       _main
 00F0:0003       __IOERROR
 00F3:000F       _exit
 00F7:0002       _atexit
 00FA:0001       _malloc
 00FA:0016       __pull_free_block
 00FA:0202       _farmalloc
 012B:0091       __brk
 012B:00D8       __sbrk
 0141:0009       _setblock
 0143:0221       _fopen
 0143:0257       _freopen
 0143:0292       _fdopen
 0170:0037       _open
 018A:0004       __open
 018F:004F       _fseek
 018F:00DD       _ftell
 01A3:00D6       __fgetc
 01A3:00F0       _fgetc
 01A3:0247       _fgetchar
 01C8:0005       _ioctl
 01CB:0002       _isatty
 01CC:0004       _setvbuf
 01E0:0006       _fclose
 01ED:0006       _close
 01F0:0007       __close
 01F2:000D       __xfclose
 01F6:0005       __xfflush
 01F9:012E       _fread
 0214:0002       _read
 0220:0007       __read
 0222:0007       _write
 0238:000D       __write
 023D:0009       _access
 0241:0008       _lseek
 0244:0005       __LONGTOA
 0244:0089       _itoa
 0244:00B6       _ultoa
 0244:00D6       _ltoa
 0254:0001       __MKNAME
 0254:0068       _tmpnam
 025F:0001       _unlink
 0260:000D       _strcat
 0264:000F       _strlen
 0266:000A       _setmem
 0266:0030       _memset
 026A:000F       __chmod
 026D:0000       _eof
 0274:0000       _fflush
 0282:0008       _printf
 0284:000C       __fputc
 0284:002B       _fputc
 0284:0172       _fputchar
 0284:018B       __FPUTN
 02AC:0031       __VPRINTER
 0303:000A       _free
 0303:02E4       _farfree
 0336:0001       _fprintf
 0338:0006       _calloc
 033F:0002       _tell
 0341:005B       __Int0Vector
 0341:005F       __Int4Vector
 0341:0063       __Int5Vector
 0341:0067       __Int6Vector
 0341:006B       __argc
 0341:006D       __argv
 0341:0071       _environ
 0341:0075       __envLng
 0341:0077       __envseg
 0341:0079       __envSize
 0341:007B       __psp
 0341:007D       __osmajor
 0341:007D       __version
 0341:007E       __osminor
 0341:007F       _errno
 0341:0081       __8087
 0341:0083       __StartTime
 0341:0087       __heapbase
 0341:008B       __brklvl
 0341:008F       __heaptop
 0341:0094       _option
 0341:02F0       __doserrno
 0341:02F2       __dosErrorToSV
 0341:034C       __exitbuf
 0341:0350       __exitfopen
 0341:0354       __exitopen
 0341:0358       __stklen
 0341:035A       __atexitcnt
 0341:035C       __first
 0341:0360       __last
 0341:0364       __rover
 0341:036A       __streams
 0341:04FA       __openfd
 0341:0522       __fmode
 0341:0524       __notUmask
 0341:0526       __stdinStarted
 0341:0528       __stdoutStarted
 0341:05E6       __RealCvtVector
 0341:05EA       __ScanTodVector
 0341:05F6       _temp
 0341:05FA       _tempkbd
 0341:0607       _output
 0341:060C       __atexittbl
 0341:068C       __tmpnum
 03AB:0000       emws_limitSP
 03AB:00C0       emws_initialSP
 03AB:00CC       emws_saveVector
 03AB:00D0       emws_nmiVector
 03AB:00D4       emws_status
 03AB:00D6       emws_control
 03AB:00D8       emws_TOS
 03AB:00DA       emws_adjust
 03AB:00DC       emws_fixSeg
 03AB:00DE       emws_BPsafe
 03AB:00E0       emws_stamp
 03AB:00E4       emws_version
 03AB:00E6       emuTop@

Line numbers for UNPROC.OBJ(UNPROC.C) segment UNPROC_TEXT

    32 003C:000F    35 003C:0015    36 003C:0019    41 003C:001D
    43 003C:0025    44 003C:0029    45 003C:002D    46 003C:0031
    47 003C:0035    48 003C:0045    50 003C:0056    51 003C:006B
    52 003C:006F    54 003C:0076    56 003C:0089    57 003C:00A4
    59 003C:00CD    60 003C:00E2    62 003C:00E6    63 003C:0103
    64 003C:012A    67 003C:013A    68 003C:014F    70 003C:0152
    73 003C:0158    75 003C:018D    76 003C:01A2    77 003C:01A6
    78 003C:01A9    79 003C:01AC    80 003C:01DE    82 003C:01EA
    83 003C:01FF    85 003C:0203    86 003C:0218    87 003C:021C
    88 003C:021F    89 003C:0251    91 003C:025D    92 003C:0272
    94 003C:0276    95 003C:028B    96 003C:028F    97 003C:0292
    98 003C:02C4   100 003C:02D0   101 003C:02E5   103 003C:02E9
   104 003C:02FE   105 003C:0302   106 003C:0305   107 003C:0337
   109 003C:0343   110 003C:0358   112 003C:035C   113 003C:0371
   114 003C:0375   115 003C:0378   116 003C:03AA   118 003C:03B6
   119 003C:03CB   121 003C:03CF   122 003C:03E4   123 003C:03E8
   124 003C:03EB   125 003C:041D   127 003C:0429   128 003C:043E
   130 003C:0442   131 003C:0457   132 003C:045B   133 003C:045E
   134 003C:0490   135 003C:0494   136 003C:04A4   138 003C:04AC
   139 003C:04C0   143 003C:04CF   144 003C:04DF   146 003C:04E5
   147 003C:0505   148 003C:0509   149 003C:0523   152 003C:0525
   141 003C:053F   156 003C:0548   157 003C:0568   158 003C:056B
   159 003C:059D   161 003C:05AF   160 003C:05D5   162 003C:05DE
   163 003C:05E0   164 003C:05F5   165 003C:05F9   166 003C:05FD
   168 003C:05FF   169 003C:0603   171 003C:0618   172 003C:062D
   174 003C:0631   180 003C:0637   181 003C:064C   182 003C:0661
   183 003C:0666   185 003C:066D   186 003C:067E   188 003C:0683
   189 003C:0698   191 003C:069A   192 003C:06B6   194 003C:06CC
   198 003C:06D9   199 003C:06F7   201 003C:06FE   202 003C:0712
   204 003C:0717   205 003C:072C   207 003C:072E   208 003C:074A
   210 003C:0763   195 003C:0770   213 003C:0780   215 003C:0784
   220 003C:078A   221 003C:079F   222 003C:07B4   223 003C:07B9
   225 003C:07C0   226 003C:07D1   228 003C:07D6   229 003C:07EB
   231 003C:07ED   233 003C:0819   237 003C:0826   238 003C:0844
   240 003C:084B   241 003C:085F   243 003C:0864   244 003C:0879
   246 003C:087B   248 003C:08B6   234 003C:08C3   251 003C:08D3
   253 003C:08D7   258 003C:08DD   260 003C:08E3   261 003C:08F0
   263 003C:08FA   264 003C:0919   266 003C:091D   267 003C:0935
   269 003C:093F   271 003C:0945   272 003C:0964   274 003C:0968
   275 003C:0980   277 003C:098A   279 003C:098C   280 003C:0996
   281 003C:09B3   283 003C:09C9   285 003C:09DC   287 003C:09F5
   289 003C:0A14   292 003C:0A34   293 003C:0A4A   294 003C:0A51
   295 003C:0A6B   296 003C:0A8A   297 003C:0AA4   298 003C:0AC3
   299 003C:0ADE   290 003C:0AE8   301 003C:0B02   302 003C:0B0C
   303 003C:0B18   304 003C:0B37   305 003C:0B3B   307 003C:0B3F
Program entry point at 0000:0000

